; Function Attrs: nounwind uwtable
define ptr @l_String_codepointPosToUtf8PosFrom(ptr noundef %0, ptr noundef %1, ptr noundef %2) local_unnamed_addr #1 {
  br label %lean_dec.exit19

lean_dec.exit19:                                  ; preds = %lean_dec.exit19.backedge, %3
  %.017 = phi ptr [ %2, %3 ], [ %.1.i28, %lean_dec.exit19.backedge ]
  %.015 = phi ptr [ %1, %3 ], [ %19, %lean_dec.exit19.backedge ]
  %4 = ptrtoint ptr %.017 to i64
  %5 = and i64 %4, 1
  %.not = icmp eq i64 %5, 0
  br i1 %.not, label %lean_nat_eq.exit.thread, label %lean_nat_eq.exit, !prof !11

lean_nat_eq.exit:                                 ; preds = %lean_dec.exit19
  %.not37 = icmp eq ptr %.017, inttoptr (i64 1 to ptr)
  br i1 %.not37, label %.loopexit, label %7

lean_nat_eq.exit.thread:                          ; preds = %lean_dec.exit19
  %6 = tail call zeroext i1 @lean_nat_big_eq(ptr noundef %.017, ptr noundef nonnull inttoptr (i64 1 to ptr)) #4
  br i1 %6, label %.thread29, label %.thread

7:                                                ; preds = %lean_nat_eq.exit
  %8 = icmp ult ptr %.017, inttoptr (i64 2 to ptr)
  br i1 %8, label %lean_dec.exit20, label %9

9:                                                ; preds = %7
  %10 = add i64 %4, -2
  %11 = inttoptr i64 %10 to ptr
  br label %lean_dec.exit20

.thread:                                          ; preds = %lean_nat_eq.exit.thread
  %12 = tail call ptr @lean_nat_big_sub(ptr noundef %.017, ptr noundef nonnull inttoptr (i64 3 to ptr)) #4
  %13 = load i32, ptr %.017, align 4, !tbaa !4
  %14 = icmp sgt i32 %13, 1
  br i1 %14, label %15, label %17, !prof !9

15:                                               ; preds = %.thread
  %16 = add nsw i32 %13, -1
  store i32 %16, ptr %.017, align 4, !tbaa !4
  br label %lean_dec.exit20

17:                                               ; preds = %.thread
  %.not.i = icmp eq i32 %13, 0
  br i1 %.not.i, label %lean_dec.exit20, label %18

18:                                               ; preds = %17
  tail call void @lean_dec_ref_cold(ptr noundef nonnull %.017) #4
  br label %lean_dec.exit20

lean_dec.exit20:                                  ; preds = %9, %7, %18, %17, %15
  %.1.i28 = phi ptr [ %12, %15 ], [ %12, %17 ], [ %12, %18 ], [ inttoptr (i64 1 to ptr), %7 ], [ %11, %9 ]
  %19 = tail call ptr @lean_string_utf8_next(ptr noundef %0, ptr noundef %.015) #4
  %20 = ptrtoint ptr %.015 to i64
  %21 = and i64 %20, 1
  %.not38 = icmp eq i64 %21, 0
  br i1 %.not38, label %22, label %lean_dec.exit19.backedge

lean_dec.exit19.backedge:                         ; preds = %lean_dec.exit20, %25, %27, %28
  br label %lean_dec.exit19

22:                                               ; preds = %lean_dec.exit20
  %23 = load i32, ptr %.015, align 4, !tbaa !4
  %24 = icmp sgt i32 %23, 1
  br i1 %24, label %25, label %27, !prof !9

25:                                               ; preds = %22
  %26 = add nsw i32 %23, -1
  store i32 %26, ptr %.015, align 4, !tbaa !4
  br label %lean_dec.exit19.backedge

27:                                               ; preds = %22
  %.not.i21 = icmp eq i32 %23, 0
  br i1 %.not.i21, label %lean_dec.exit19.backedge, label %28

28:                                               ; preds = %27
  tail call void @lean_dec_ref_cold(ptr noundef nonnull %.015) #4
  br label %lean_dec.exit19.backedge

.thread29:                                        ; preds = %lean_nat_eq.exit.thread
  %29 = load i32, ptr %.017, align 4, !tbaa !4
  %30 = icmp sgt i32 %29, 1
  br i1 %30, label %31, label %33, !prof !9

31:                                               ; preds = %.thread29
  %32 = add nsw i32 %29, -1
  store i32 %32, ptr %.017, align 4, !tbaa !4
  br label %.loopexit

33:                                               ; preds = %.thread29
  %.not.i23 = icmp eq i32 %29, 0
  br i1 %.not.i23, label %.loopexit, label %34

34:                                               ; preds = %33
  tail call void @lean_dec_ref_cold(ptr noundef nonnull %.017) #4
  br label %.loopexit

.loopexit:                                        ; preds = %lean_nat_eq.exit, %34, %33, %31
  ret ptr %.015
}